target datalayout = "e-m:e-p270:32:32-p271:32:32-p272:64:64-i64:64-f80:128-n8:16:32:64-S128"
target triple = "x86_64-pc-linux-gnu"

%struct.stu = type { [20 x i8], i32, i32, i8, i8, i32 }

@.str = private unnamed_addr constant [3 x i8] c"%d\00", align 1
@.str.1 = private unnamed_addr constant [16 x i8] c"%s%d%d %c %c %d\00", align 1
@stu = common dso_local global [100 x %struct.stu] zeroinitializer, align 16
@.str.2 = private unnamed_addr constant [7 x i8] c"%s\0A%d\0A\00", align 1

; Function Attrs: noinline nounwind uwtable
define dso_local void @main() #0 {
  %1 = alloca i32, align 4
  %2 = alloca i32, align 4
  %3 = alloca [100 x i32], align 16
  %4 = alloca i32, align 4
  %5 = alloca i32, align 4
  %6 = bitcast [100 x i32]* %3 to i8*
  call void @llvm.memset.p0i8.i64(i8* align 16 %6, i8 0, i64 400, i1 false)
  store i32 0, i32* %4, align 4
  store i32 0, i32* %5, align 4
  %7 = call i32 (i8*, ...) @__isoc99_scanf(i8* getelementptr inbounds ([3 x i8], [3 x i8]* @.str, i64 0, i64 0), i32* %1)
  store i32 0, i32* %2, align 4
  br label %8

8:                                                ; preds = %38, %0
  %9 = load i32, i32* %2, align 4
  %10 = load i32, i32* %1, align 4
  %11 = icmp slt i32 %9, %10
  br i1 %11, label %12, label %41

12:                                               ; preds = %8
  %13 = load i32, i32* %2, align 4
  %14 = sext i32 %13 to i64
  %15 = getelementptr inbounds [100 x %struct.stu], [100 x %struct.stu]* @stu, i64 0, i64 %14
  %16 = getelementptr inbounds %struct.stu, %struct.stu* %15, i32 0, i32 0
  %17 = load i32, i32* %2, align 4
  %18 = sext i32 %17 to i64
  %19 = getelementptr inbounds [100 x %struct.stu], [100 x %struct.stu]* @stu, i64 0, i64 %18
  %20 = getelementptr inbounds %struct.stu, %struct.stu* %19, i32 0, i32 1
  %21 = load i32, i32* %2, align 4
  %22 = sext i32 %21 to i64
  %23 = getelementptr inbounds [100 x %struct.stu], [100 x %struct.stu]* @stu, i64 0, i64 %22
  %24 = getelementptr inbounds %struct.stu, %struct.stu* %23, i32 0, i32 2
  %25 = load i32, i32* %2, align 4
  %26 = sext i32 %25 to i64
  %27 = getelementptr inbounds [100 x %struct.stu], [100 x %struct.stu]* @stu, i64 0, i64 %26
  %28 = getelementptr inbounds %struct.stu, %struct.stu* %27, i32 0, i32 3
  %29 = load i32, i32* %2, align 4
  %30 = sext i32 %29 to i64
  %31 = getelementptr inbounds [100 x %struct.stu], [100 x %struct.stu]* @stu, i64 0, i64 %30
  %32 = getelementptr inbounds %struct.stu, %struct.stu* %31, i32 0, i32 4
  %33 = load i32, i32* %2, align 4
  %34 = sext i32 %33 to i64
  %35 = getelementptr inbounds [100 x %struct.stu], [100 x %struct.stu]* @stu, i64 0, i64 %34
  %36 = getelementptr inbounds %struct.stu, %struct.stu* %35, i32 0, i32 5
  %37 = call i32 (i8*, ...) @__isoc99_scanf(i8* getelementptr inbounds ([16 x i8], [16 x i8]* @.str.1, i64 0, i64 0), [20 x i8]* %16, i32* %20, i32* %24, i8* %28, i8* %32, i32* %36)
  br label %38

38:                                               ; preds = %12
  %39 = load i32, i32* %2, align 4
  %40 = add nsw i32 %39, 1
  store i32 %40, i32* %2, align 4
  br label %8

41:                                               ; preds = %8
  store i32 0, i32* %2, align 4
  br label %42

42:                                               ; preds = %142, %41
  %43 = load i32, i32* %2, align 4
  %44 = load i32, i32* %1, align 4
  %45 = icmp slt i32 %43, %44
  br i1 %45, label %46, label %145

46:                                               ; preds = %42
  %47 = load i32, i32* %2, align 4
  %48 = sext i32 %47 to i64
  %49 = getelementptr inbounds [100 x %struct.stu], [100 x %struct.stu]* @stu, i64 0, i64 %48
  %50 = getelementptr inbounds %struct.stu, %struct.stu* %49, i32 0, i32 1
  %51 = load i32, i32* %50, align 4
  %52 = icmp sgt i32 %51, 80
  br i1 %52, label %53, label %66

53:                                               ; preds = %46
  %54 = load i32, i32* %2, align 4
  %55 = sext i32 %54 to i64
  %56 = getelementptr inbounds [100 x %struct.stu], [100 x %struct.stu]* @stu, i64 0, i64 %55
  %57 = getelementptr inbounds %struct.stu, %struct.stu* %56, i32 0, i32 5
  %58 = load i32, i32* %57, align 4
  %59 = icmp sgt i32 %58, 0
  br i1 %59, label %60, label %66

60:                                               ; preds = %53
  %61 = load i32, i32* %2, align 4
  %62 = sext i32 %61 to i64
  %63 = getelementptr inbounds [100 x i32], [100 x i32]* %3, i64 0, i64 %62
  %64 = load i32, i32* %63, align 4
  %65 = add nsw i32 %64, 8000
  store i32 %65, i32* %63, align 4
  br label %66

66:                                               ; preds = %60, %53, %46
  %67 = load i32, i32* %2, align 4
  %68 = sext i32 %67 to i64
  %69 = getelementptr inbounds [100 x %struct.stu], [100 x %struct.stu]* @stu, i64 0, i64 %68
  %70 = getelementptr inbounds %struct.stu, %struct.stu* %69, i32 0, i32 1
  %71 = load i32, i32* %70, align 4
  %72 = icmp sgt i32 %71, 85
  br i1 %72, label %73, label %86

73:                                               ; preds = %66
  %74 = load i32, i32* %2, align 4
  %75 = sext i32 %74 to i64
  %76 = getelementptr inbounds [100 x %struct.stu], [100 x %struct.stu]* @stu, i64 0, i64 %75
  %77 = getelementptr inbounds %struct.stu, %struct.stu* %76, i32 0, i32 2
  %78 = load i32, i32* %77, align 4
  %79 = icmp sgt i32 %78, 80
  br i1 %79, label %80, label %86

80:                                               ; preds = %73
  %81 = load i32, i32* %2, align 4
  %82 = sext i32 %81 to i64
  %83 = getelementptr inbounds [100 x i32], [100 x i32]* %3, i64 0, i64 %82
  %84 = load i32, i32* %83, align 4
  %85 = add nsw i32 %84, 4000
  store i32 %85, i32* %83, align 4
  br label %86

86:                                               ; preds = %80, %73, %66
  %87 = load i32, i32* %2, align 4
  %88 = sext i32 %87 to i64
  %89 = getelementptr inbounds [100 x %struct.stu], [100 x %struct.stu]* @stu, i64 0, i64 %88
  %90 = getelementptr inbounds %struct.stu, %struct.stu* %89, i32 0, i32 1
  %91 = load i32, i32* %90, align 4
  %92 = icmp sgt i32 %91, 90
  br i1 %92, label %93, label %99

93:                                               ; preds = %86
  %94 = load i32, i32* %2, align 4
  %95 = sext i32 %94 to i64
  %96 = getelementptr inbounds [100 x i32], [100 x i32]* %3, i64 0, i64 %95
  %97 = load i32, i32* %96, align 4
  %98 = add nsw i32 %97, 2000
  store i32 %98, i32* %96, align 4
  br label %99

99:                                               ; preds = %93, %86
  %100 = load i32, i32* %2, align 4
  %101 = sext i32 %100 to i64
  %102 = getelementptr inbounds [100 x %struct.stu], [100 x %struct.stu]* @stu, i64 0, i64 %101
  %103 = getelementptr inbounds %struct.stu, %struct.stu* %102, i32 0, i32 1
  %104 = load i32, i32* %103, align 4
  %105 = icmp sgt i32 %104, 85
  br i1 %105, label %106, label %120

106:                                              ; preds = %99
  %107 = load i32, i32* %2, align 4
  %108 = sext i32 %107 to i64
  %109 = getelementptr inbounds [100 x %struct.stu], [100 x %struct.stu]* @stu, i64 0, i64 %108
  %110 = getelementptr inbounds %struct.stu, %struct.stu* %109, i32 0, i32 4
  %111 = load i8, i8* %110, align 1
  %112 = sext i8 %111 to i32
  %113 = icmp eq i32 %112, 89
  br i1 %113, label %114, label %120

114:                                              ; preds = %106
  %115 = load i32, i32* %2, align 4
  %116 = sext i32 %115 to i64
  %117 = getelementptr inbounds [100 x i32], [100 x i32]* %3, i64 0, i64 %116
  %118 = load i32, i32* %117, align 4
  %119 = add nsw i32 %118, 1000
  store i32 %119, i32* %117, align 4
  br label %120

120:                                              ; preds = %114, %106, %99
  %121 = load i32, i32* %2, align 4
  %122 = sext i32 %121 to i64
  %123 = getelementptr inbounds [100 x %struct.stu], [100 x %struct.stu]* @stu, i64 0, i64 %122
  %124 = getelementptr inbounds %struct.stu, %struct.stu* %123, i32 0, i32 2
  %125 = load i32, i32* %124, align 4
  %126 = icmp sgt i32 %125, 80
  br i1 %126, label %127, label %141

127:                                              ; preds = %120
  %128 = load i32, i32* %2, align 4
  %129 = sext i32 %128 to i64
  %130 = getelementptr inbounds [100 x %struct.stu], [100 x %struct.stu]* @stu, i64 0, i64 %129
  %131 = getelementptr inbounds %struct.stu, %struct.stu* %130, i32 0, i32 3
  %132 = load i8, i8* %131, align 4
  %133 = sext i8 %132 to i32
  %134 = icmp eq i32 %133, 89
  br i1 %134, label %135, label %141

135:                                              ; preds = %127
  %136 = load i32, i32* %2, align 4
  %137 = sext i32 %136 to i64
  %138 = getelementptr inbounds [100 x i32], [100 x i32]* %3, i64 0, i64 %137
  %139 = load i32, i32* %138, align 4
  %140 = add nsw i32 %139, 850
  store i32 %140, i32* %138, align 4
  br label %141

141:                                              ; preds = %135, %127, %120
  br label %142

142:                                              ; preds = %141
  %143 = load i32, i32* %2, align 4
  %144 = add nsw i32 %143, 1
  store i32 %144, i32* %2, align 4
  br label %42

145:                                              ; preds = %42
  store i32 0, i32* %2, align 4
  br label %146

146:                                              ; preds = %172, %145
  %147 = load i32, i32* %2, align 4
  %148 = load i32, i32* %1, align 4
  %149 = icmp slt i32 %147, %148
  br i1 %149, label %150, label %175

150:                                              ; preds = %146
  %151 = load i32, i32* %4, align 4
  %152 = load i32, i32* %2, align 4
  %153 = sext i32 %152 to i64
  %154 = getelementptr inbounds [100 x i32], [100 x i32]* %3, i64 0, i64 %153
  %155 = load i32, i32* %154, align 4
  %156 = icmp sge i32 %151, %155
  br i1 %156, label %157, label %159

157:                                              ; preds = %150
  %158 = load i32, i32* %4, align 4
  br label %164

159:                                              ; preds = %150
  %160 = load i32, i32* %2, align 4
  %161 = sext i32 %160 to i64
  %162 = getelementptr inbounds [100 x i32], [100 x i32]* %3, i64 0, i64 %161
  %163 = load i32, i32* %162, align 4
  br label %164

164:                                              ; preds = %159, %157
  %165 = phi i32 [ %158, %157 ], [ %163, %159 ]
  store i32 %165, i32* %4, align 4
  %166 = load i32, i32* %2, align 4
  %167 = sext i32 %166 to i64
  %168 = getelementptr inbounds [100 x i32], [100 x i32]* %3, i64 0, i64 %167
  %169 = load i32, i32* %168, align 4
  %170 = load i32, i32* %5, align 4
  %171 = add nsw i32 %170, %169
  store i32 %171, i32* %5, align 4
  br label %172

172:                                              ; preds = %164
  %173 = load i32, i32* %2, align 4
  %174 = add nsw i32 %173, 1
  store i32 %174, i32* %2, align 4
  br label %146

175:                                              ; preds = %146
  store i32 0, i32* %2, align 4
  br label %176

176:                                              ; preds = %199, %175
  %177 = load i32, i32* %2, align 4
  %178 = load i32, i32* %1, align 4
  %179 = icmp slt i32 %177, %178
  br i1 %179, label %180, label %202

180:                                              ; preds = %176
  %181 = load i32, i32* %2, align 4
  %182 = sext i32 %181 to i64
  %183 = getelementptr inbounds [100 x i32], [100 x i32]* %3, i64 0, i64 %182
  %184 = load i32, i32* %183, align 4
  %185 = load i32, i32* %4, align 4
  %186 = icmp eq i32 %184, %185
  br i1 %186, label %187, label %198

187:                                              ; preds = %180
  %188 = load i32, i32* %2, align 4
  %189 = sext i32 %188 to i64
  %190 = getelementptr inbounds [100 x %struct.stu], [100 x %struct.stu]* @stu, i64 0, i64 %189
  %191 = getelementptr inbounds %struct.stu, %struct.stu* %190, i32 0, i32 0
  %192 = getelementptr inbounds [20 x i8], [20 x i8]* %191, i64 0, i64 0
  %193 = load i32, i32* %2, align 4
  %194 = sext i32 %193 to i64
  %195 = getelementptr inbounds [100 x i32], [100 x i32]* %3, i64 0, i64 %194
  %196 = load i32, i32* %195, align 4
  %197 = call i32 (i8*, ...) @printf(i8* getelementptr inbounds ([7 x i8], [7 x i8]* @.str.2, i64 0, i64 0), i8* %192, i32 %196)
  br label %202

198:                                              ; preds = %180
  br label %199

199:                                              ; preds = %198
  %200 = load i32, i32* %2, align 4
  %201 = add nsw i32 %200, 1
  store i32 %201, i32* %2, align 4
  br label %176

202:                                              ; preds = %187, %176
  %203 = load i32, i32* %5, align 4
  %204 = call i32 (i8*, ...) @printf(i8* getelementptr inbounds ([3 x i8], [3 x i8]* @.str, i64 0, i64 0), i32 %203)
  ret void
}